target datalayout = "e-m:e-p270:32:32-p271:32:32-p272:64:64-i64:64-i128:128-f80:128-n8:16:32:64-S128"
target triple = "x86_64-pc-linux-gnu"

%struct._zval_struct = type { %union._zend_value, %union.anon, %union.anon.2 }
%union._zend_value = type { i64 }
%union.anon = type { i32 }
%union.anon.2 = type { i32 }
%struct._zend_refcounted_h = type { i32, %union.anon.3 }
%union.anon.3 = type { i32 }
%struct._xmlDoc = type { ptr, i32, ptr, ptr, ptr, ptr, ptr, ptr, ptr, i32, i32, ptr, ptr, ptr, ptr, ptr, ptr, ptr, ptr, i32, ptr, ptr, i32, i32 }
%struct._zend_string = type { %struct._zend_refcounted_h, i64, i64, [1 x i8] }

@xmlFree = external global ptr, align 8
@.str = private unnamed_addr constant [26 x i8] c"Invalid document encoding\00", align 1

; Function Attrs: nounwind uwtable
define hidden i32 @dom_document_encoding_write(ptr noundef %0, ptr noundef %1) #0 {
  %3 = alloca ptr, align 8
  %4 = alloca i32, align 4
  %5 = alloca ptr, align 8
  %6 = alloca ptr, align 8
  %7 = alloca ptr, align 8
  %8 = alloca ptr, align 8
  %9 = alloca ptr, align 8
  store ptr %0, ptr %5, align 8
  store ptr %1, ptr %6, align 8
  %10 = load ptr, ptr %5, align 8
  %11 = call ptr @dom_object_get_node(ptr noundef %10)
  store ptr %11, ptr %7, align 8
  %12 = load ptr, ptr %7, align 8
  %13 = icmp eq ptr %12, null
  br i1 %13, label %14, label %15

14:                                               ; preds = %2
  call void @php_dom_throw_error(i32 noundef 11, i32 noundef 1)
  store i32 -1, ptr %4, align 4
  br label %55

15:                                               ; preds = %2
  %16 = load ptr, ptr %6, align 8
  store ptr %16, ptr %3, align 8
  %17 = load ptr, ptr %3, align 8
  %18 = getelementptr inbounds %struct._zval_struct, ptr %17, i32 0, i32 1
  %19 = load i8, ptr %18, align 8
  %20 = zext i8 %19 to i32
  %21 = icmp eq i32 %20, 1
  br i1 %21, label %22, label %23

22:                                               ; preds = %15
  br label %54

23:                                               ; preds = %15
  %24 = load ptr, ptr %6, align 8
  %25 = getelementptr inbounds %struct._zval_struct, ptr %24, i32 0, i32 0
  %26 = load ptr, ptr %25, align 8
  store ptr %26, ptr %9, align 8
  %27 = load ptr, ptr %9, align 8
  %28 = getelementptr inbounds %struct._zend_string, ptr %27, i32 0, i32 3
  %29 = getelementptr inbounds [1 x i8], ptr %28, i64 0, i64 0
  %30 = call ptr @xmlFindCharEncodingHandler(ptr noundef %29)
  store ptr %30, ptr %8, align 8
  %31 = load ptr, ptr %8, align 8
  %32 = icmp ne ptr %31, null
  br i1 %32, label %33, label %52

33:                                               ; preds = %23
  %34 = load ptr, ptr %8, align 8
  %35 = call i32 @xmlCharEncCloseFunc(ptr noundef %34)
  %36 = load ptr, ptr %7, align 8
  %37 = getelementptr inbounds %struct._xmlDoc, ptr %36, i32 0, i32 15
  %38 = load ptr, ptr %37, align 8
  %39 = icmp ne ptr %38, null
  br i1 %39, label %40, label %45

40:                                               ; preds = %33
  %41 = load ptr, ptr @xmlFree, align 8
  %42 = load ptr, ptr %7, align 8
  %43 = getelementptr inbounds %struct._xmlDoc, ptr %42, i32 0, i32 15
  %44 = load ptr, ptr %43, align 8
  call void %41(ptr noundef %44)
  br label %45

45:                                               ; preds = %40, %33
  %46 = load ptr, ptr %9, align 8
  %47 = getelementptr inbounds %struct._zend_string, ptr %46, i32 0, i32 3
  %48 = getelementptr inbounds [1 x i8], ptr %47, i64 0, i64 0
  %49 = call ptr @xmlStrdup(ptr noundef %48)
  %50 = load ptr, ptr %7, align 8
  %51 = getelementptr inbounds %struct._xmlDoc, ptr %50, i32 0, i32 15
  store ptr %49, ptr %51, align 8
  br label %53

52:                                               ; preds = %23
  br label %54

53:                                               ; preds = %45
  store i32 0, ptr %4, align 4
  br label %55

54:                                               ; preds = %52, %22
  call void (ptr, ...) @zend_value_error(ptr noundef @.str)
  store i32 -1, ptr %4, align 4
  br label %55

55:                                               ; preds = %54, %53, %14
  %56 = load i32, ptr %4, align 4
  ret i32 %56
}