; Function Attrs: nounwind uwtable
define hidden noundef i32 @dom_document_encoding_write(ptr noundef %0, ptr nocapture noundef readonly %1) local_unnamed_addr #0 {
  %3 = tail call ptr @dom_object_get_node(ptr noundef %0) #10
  %4 = icmp eq ptr %3, null
  br i1 %4, label %5, label %6

5:                                                ; preds = %2
  tail call void @php_dom_throw_error(i32 noundef 11, i32 noundef 1) #10
  br label %23

6:                                                ; preds = %2
  %7 = getelementptr inbounds i8, ptr %1, i64 8
  %8 = load i8, ptr %7, align 8
  %9 = icmp eq i8 %8, 1
  br i1 %9, label %22, label %10

10:                                               ; preds = %6
  %11 = load ptr, ptr %1, align 8
  %12 = getelementptr inbounds i8, ptr %11, i64 24
  %13 = tail call ptr @xmlFindCharEncodingHandler(ptr noundef nonnull %12) #10
  %.not = icmp eq ptr %13, null
  br i1 %.not, label %22, label %14

14:                                               ; preds = %10
  %15 = tail call i32 @xmlCharEncCloseFunc(ptr noundef nonnull %13) #10
  %16 = getelementptr inbounds i8, ptr %3, i64 112
  %17 = load ptr, ptr %16, align 8
  %.not15 = icmp eq ptr %17, null
  br i1 %.not15, label %20, label %18

18:                                               ; preds = %14
  %19 = load ptr, ptr @xmlFree, align 8
  tail call void %19(ptr noundef nonnull %17) #10
  br label %20

20:                                               ; preds = %18, %14
  %21 = tail call ptr @xmlStrdup(ptr noundef nonnull %12) #10
  store ptr %21, ptr %16, align 8
  br label %23

22:                                               ; preds = %10, %6
  tail call void (ptr, ...) @zend_value_error(ptr noundef nonnull @.str) #10
  br label %23

23:                                               ; preds = %22, %20, %5
  %.0 = phi i32 [ -1, %5 ], [ -1, %22 ], [ 0, %20 ]
  ret i32 %.0
}